target datalayout = "e-m:e-p270:32:32-p271:32:32-p272:64:64-i64:64-i128:128-f80:128-n8:16:32:64-S128"
target triple = "x86_64-pc-linux-gnu"

%"class.LIEF::MachO::RelocationObject" = type { %"class.LIEF::MachO::Relocation", i8, i8, i32 }
%"class.LIEF::MachO::Relocation" = type { %"class.LIEF::Relocation.base", ptr, i8, i32, ptr, ptr }
%"class.LIEF::Relocation.base" = type <{ %"class.LIEF::Object", i64, i8 }>
%"class.LIEF::Object" = type { ptr }

; Function Attrs: inlinehint mustprogress nounwind uwtable
define linkonce_odr void @_ZSt4swapIiENSt9enable_ifIXsr6__and_ISt6__not_ISt15__is_tuple_likeIT_EESt21is_move_constructibleIS3_ESt18is_move_assignableIS3_EEE5valueEvE4typeERS3_SC_(ptr noundef nonnull align 4 dereferenceable(4) %0, ptr noundef nonnull align 4 dereferenceable(4) %1) #3 comdat {
  %3 = alloca ptr, align 8
  %4 = alloca ptr, align 8
  %5 = alloca i32, align 4
  store ptr %0, ptr %3, align 8, !tbaa !54
  store ptr %1, ptr %4, align 8, !tbaa !54
  call void @llvm.lifetime.start.p0(i64 4, ptr %5) #19
  %6 = load ptr, ptr %3, align 8, !tbaa !54
  %7 = load i32, ptr %6, align 4, !tbaa !56
  store i32 %7, ptr %5, align 4, !tbaa !56
  %8 = load ptr, ptr %4, align 8, !tbaa !54
  %9 = load i32, ptr %8, align 4, !tbaa !56
  %10 = load ptr, ptr %3, align 8, !tbaa !54
  store i32 %9, ptr %10, align 4, !tbaa !56
  %11 = load i32, ptr %5, align 4, !tbaa !56
  %12 = load ptr, ptr %4, align 8, !tbaa !54
  store i32 %11, ptr %12, align 4, !tbaa !56
  call void @llvm.lifetime.end.p0(i64 4, ptr %5) #19
  ret void
}

; Function Attrs: inlinehint mustprogress nounwind uwtable
define linkonce_odr void @_ZSt4swapIbENSt9enable_ifIXsr6__and_ISt6__not_ISt15__is_tuple_likeIT_EESt21is_move_constructibleIS3_ESt18is_move_assignableIS3_EEE5valueEvE4typeERS3_SC_(ptr noundef nonnull align 1 dereferenceable(1) %0, ptr noundef nonnull align 1 dereferenceable(1) %1) #3 comdat {
  %3 = alloca ptr, align 8
  %4 = alloca ptr, align 8
  %5 = alloca i8, align 1
  store ptr %0, ptr %3, align 8, !tbaa !49
  store ptr %1, ptr %4, align 8, !tbaa !49
  call void @llvm.lifetime.start.p0(i64 1, ptr %5) #19
  %6 = load ptr, ptr %3, align 8, !tbaa !49
  %7 = load i8, ptr %6, align 1, !tbaa !51, !range !52, !noundef !53
  %8 = trunc i8 %7 to i1
  %9 = zext i1 %8 to i8
  store i8 %9, ptr %5, align 1, !tbaa !51
  %10 = load ptr, ptr %4, align 8, !tbaa !49
  %11 = load i8, ptr %10, align 1, !tbaa !51, !range !52, !noundef !53
  %12 = trunc i8 %11 to i1
  %13 = load ptr, ptr %3, align 8, !tbaa !49
  %14 = zext i1 %12 to i8
  store i8 %14, ptr %13, align 1, !tbaa !51
  %15 = load i8, ptr %5, align 1, !tbaa !51, !range !52, !noundef !53
  %16 = trunc i8 %15 to i1
  %17 = load ptr, ptr %4, align 8, !tbaa !49
  %18 = zext i1 %16 to i8
  store i8 %18, ptr %17, align 1, !tbaa !51
  call void @llvm.lifetime.end.p0(i64 1, ptr %5) #19
  ret void
}

; Function Attrs: mustprogress nounwind uwtable
define void @_ZN4LIEF5MachO16RelocationObject4swapERS1_(ptr noundef nonnull align 8 dereferenceable(64) %0, ptr noundef nonnull align 8 dereferenceable(64) %1) #1 align 2 {
  %3 = alloca ptr, align 8
  %4 = alloca ptr, align 8
  store ptr %0, ptr %3, align 8, !tbaa !15
  store ptr %1, ptr %4, align 8, !tbaa !15
  %5 = load ptr, ptr %3, align 8
  %6 = load ptr, ptr %4, align 8, !tbaa !15
  call void @_ZN4LIEF5MachO10Relocation4swapERS1_(ptr noundef nonnull align 8 dereferenceable(56) %5, ptr noundef nonnull align 8 dereferenceable(56) %6) #19
  %7 = getelementptr inbounds nuw %"class.LIEF::MachO::RelocationObject", ptr %5, i32 0, i32 1
  %8 = load ptr, ptr %4, align 8, !tbaa !15
  %9 = getelementptr inbounds nuw %"class.LIEF::MachO::RelocationObject", ptr %8, i32 0, i32 1
  call void @_ZSt4swapIbENSt9enable_ifIXsr6__and_ISt6__not_ISt15__is_tuple_likeIT_EESt21is_move_constructibleIS3_ESt18is_move_assignableIS3_EEE5valueEvE4typeERS3_SC_(ptr noundef nonnull align 1 dereferenceable(1) %7, ptr noundef nonnull align 1 dereferenceable(1) %9) #19
  %10 = getelementptr inbounds nuw %"class.LIEF::MachO::RelocationObject", ptr %5, i32 0, i32 2
  %11 = load ptr, ptr %4, align 8, !tbaa !15
  %12 = getelementptr inbounds nuw %"class.LIEF::MachO::RelocationObject", ptr %11, i32 0, i32 2
  call void @_ZSt4swapIbENSt9enable_ifIXsr6__and_ISt6__not_ISt15__is_tuple_likeIT_EESt21is_move_constructibleIS3_ESt18is_move_assignableIS3_EEE5valueEvE4typeERS3_SC_(ptr noundef nonnull align 1 dereferenceable(1) %10, ptr noundef nonnull align 1 dereferenceable(1) %12) #19
  %13 = getelementptr inbounds nuw %"class.LIEF::MachO::RelocationObject", ptr %5, i32 0, i32 3
  %14 = load ptr, ptr %4, align 8, !tbaa !15
  %15 = getelementptr inbounds nuw %"class.LIEF::MachO::RelocationObject", ptr %14, i32 0, i32 3
  call void @_ZSt4swapIiENSt9enable_ifIXsr6__and_ISt6__not_ISt15__is_tuple_likeIT_EESt21is_move_constructibleIS3_ESt18is_move_assignableIS3_EEE5valueEvE4typeERS3_SC_(ptr noundef nonnull align 4 dereferenceable(4) %13, ptr noundef nonnull align 4 dereferenceable(4) %15) #19
  ret void
}