; Function Attrs: mustprogress nounwind uwtable
define void @_ZN4LIEF5MachO16RelocationObject4swapERS1_(ptr noundef nonnull align 8 dereferenceable(64) %0, ptr noundef nonnull align 8 dereferenceable(64) %1) local_unnamed_addr #1 align 2 {
  tail call void @_ZN4LIEF5MachO10Relocation4swapERS1_(ptr noundef nonnull align 8 dereferenceable(56) %0, ptr noundef nonnull align 8 dereferenceable(56) %1) #22
  %3 = getelementptr inbounds nuw i8, ptr %0, i64 56
  %4 = getelementptr inbounds nuw i8, ptr %1, i64 56
  %5 = load i8, ptr %3, align 8, !tbaa !31, !range !32, !noundef !33
  %6 = load i8, ptr %4, align 8, !tbaa !31, !range !32, !noundef !33
  store i8 %6, ptr %3, align 8, !tbaa !31
  store i8 %5, ptr %4, align 8, !tbaa !31
  %7 = getelementptr inbounds nuw i8, ptr %0, i64 57
  %8 = getelementptr inbounds nuw i8, ptr %1, i64 57
  %9 = load i8, ptr %7, align 1, !tbaa !31, !range !32, !noundef !33
  %10 = load i8, ptr %8, align 1, !tbaa !31, !range !32, !noundef !33
  store i8 %10, ptr %7, align 1, !tbaa !31
  store i8 %9, ptr %8, align 1, !tbaa !31
  %11 = getelementptr inbounds nuw i8, ptr %0, i64 60
  %12 = getelementptr inbounds nuw i8, ptr %1, i64 60
  %13 = load i32, ptr %11, align 4, !tbaa !34
  %14 = load i32, ptr %12, align 4, !tbaa !34
  store i32 %14, ptr %11, align 4, !tbaa !34
  store i32 %13, ptr %12, align 4, !tbaa !34
  ret void
}